http://stackoverflow.com/questions/488809/tools-for-inspecting-lib-files


  Symbol name  : ?AddButton@@YAXPAXPADHP6AXXZW4UIBFlags@@@Z (void __cdecl AddButton(void *,char *,int,void (__cdecl*)(void),enum UIBFlags))
  Symbol name  : ?AddButtonGroup@@YAPAXPAXPAD@Z (void * __cdecl AddButtonGroup(void *,char *))
  Symbol name  : ?AddButtonMfc@@YAXPAXPADP6AXXZ@Z (void __cdecl AddButtonMfc(void *,char *,void (__cdecl*)(void)))
  Symbol name  : ?AddButtonToGroup@@YAXPAVButtonBox@@PADHP6AXXZW4UIBFlags@@@Z (void __cdecl AddButtonToGroup(class ButtonBox *,char *,int,void (__cdecl*)(void),enum UIBFlags))
  Symbol name  : ?AddCheckBox@@YAXPAXPADAA_N@Z (void __cdecl AddCheckBox(void *,char *,bool &))
  Symbol name  : ?AddCheckBoxToGroup@@YAXPAXPADAA_N@Z (void __cdecl AddCheckBoxToGroup(void *,char *,bool &))
  Symbol name  : ?AddFloatControl@@YAXPAXPADAAMMM@Z (void __cdecl AddFloatControl(void *,char *,float &,float,float))
  Symbol name  : ?AddFloatControlMfc@@YAXPAXPADAAMMMM@Z (void __cdecl AddFloatControlMfc(void *,char *,float &,float,float,float))
  Symbol name  : ?AddFloatControlToGroup@@YAXPAXPADAAMMM@Z (void __cdecl AddFloatControlToGroup(void *,char *,float &,float,float))
  Symbol name  : ?AddGroupBox@@YAPAXPAXPAD@Z (void * __cdecl AddGroupBox(void *,char *))
  Symbol name  : ?AddGroupBoxToGroup@@YAPAXPAXPAD@Z (void * __cdecl AddGroupBoxToGroup(void *,char *))
  Symbol name  : ?AddIntControl@@YAXPAXPADAAHHH@Z (void __cdecl AddIntControl(void *,char *,int &,int,int))
  Symbol name  : ?AddIntControlMfc@@YAXPAXPADAAHHH@Z (void __cdecl AddIntControlMfc(void *,char *,int &,int,int))
  Symbol name  : ?AddIntControlToGroup@@YAXPAXPADAAHHH@Z (void __cdecl AddIntControlToGroup(void *,char *,int &,int,int))
  Symbol name  : ?AddMacroStatusBar@@YAXXZ (void __cdecl AddMacroStatusBar(void))
  Symbol name  : ?AddMenuItem@@YAPAXPAXPADP6AXXZ@Z (void * __cdecl AddMenuItem(void *,char *,void (__cdecl*)(void)))
  Symbol name  : ?AddRadioButton@@YAXPAXPADH@Z (void __cdecl AddRadioButton(void *,char *,int))
  Symbol name  : ?AddRadioGroup@@YAPAXPAXPADAAH@Z (void * __cdecl AddRadioGroup(void *,char *,int &))
  Symbol name  : ?AddRadioGroupToGroup@@YAPAXPAXPADH@Z (void * __cdecl AddRadioGroupToGroup(void *,char *,int))
  Symbol name  : ?AddSpacer@@YAXPAXH@Z (void __cdecl AddSpacer(void *,int))
  Symbol name  : ?AddStringEntry@@YAXPAXPADH1H@Z (void __cdecl AddStringEntry(void *,char *,int,char *,int))
  Symbol name  : ?AddStringEntryMfc@@YAXPAXPAD1H@Z (void __cdecl AddStringEntryMfc(void *,char *,char *,int))
  Symbol name  : ?AddStringEntryToGroup@@YAXPAXPADH1H@Z (void __cdecl AddStringEntryToGroup(void *,char *,int,char *,int))
  Symbol name  : ?AddTextBox@@YAPAXPAXPAD_N@Z (void * __cdecl AddTextBox(void *,char *,bool))
  Symbol name  : ?AddVerticalButton@@YAXPAXPADHP6AXXZW4UIBFlags@@@Z (void __cdecl AddVerticalButton(void *,char *,int,void (__cdecl*)(void),enum UIBFlags))
  Symbol name  : ?AddVerticalButtonToGroup@@YAXPAXPADHP6AXXZW4UIBFlags@@@Z (void __cdecl AddVerticalButtonToGroup(void *,char *,int,void (__cdecl*)(void),enum UIBFlags))
  Symbol name  : ?AdminPasswordControl@@YA_NXZ (bool __cdecl AdminPasswordControl(void))
  Symbol name  : ?AdminPasswordQuery@@YA_NH@Z (bool __cdecl AdminPasswordQuery(int))
  Symbol name  : ?AskBut@@YAHPBD00000W4ASK_DIALOG_TYPE@@@Z (int __cdecl AskBut(char const *,char const *,char const *,char const *,char const *,char const *,enum ASK_DIALOG_TYPE))
  Symbol name  : ?AskBut@@YAHPBD0HH0000W4ASK_DIALOG_TYPE@@@Z (int __cdecl AskBut(char const *,char const *,int,int,char const *,char const *,char const *,char const *,enum ASK_DIALOG_TYPE))
  Symbol name  : ?AskCancel@@YAXPBD0ZZ (void __cdecl AskCancel(char const *,char const *,...))
  Symbol name  : ?AskCancelOk@@YA_NPBD0ZZ (bool __cdecl AskCancelOk(char const *,char const *,...))
  Symbol name  : ?AskNoYes@@YA_NPBD0ZZ (bool __cdecl AskNoYes(char const *,char const *,...))
  Symbol name  : ?AskOk@@YAXPBD0ZZ (void __cdecl AskOk(char const *,char const *,...))
  Symbol name  : ?AskOkCancel@@YA_NPBD0ZZ (bool __cdecl AskOkCancel(char const *,char const *,...))
  Symbol name  : ?AskQuit@@YAXPBD0ZZ (void __cdecl AskQuit(char const *,char const *,...))
  Symbol name  : ?AskString@@YAHPBD0HPADH0100@Z (int __cdecl AskString(char const *,char const *,int,char *,int,char const *,char *,char const *,char const *))
  Symbol name  : ?AskString@@YAHPBD0HPADHHH0100@Z (int __cdecl AskString(char const *,char const *,int,char *,int,int,int,char const *,char *,char const *,char const *))
  Symbol name  : ?AskString@@YAHPBD0PADH0100@Z (int __cdecl AskString(char const *,char const *,char *,int,char const *,char *,char const *,char const *))
  Symbol name  : ?AskString@@YAHPBD0PADHHH0100@Z (int __cdecl AskString(char const *,char const *,char *,int,int,int,char const *,char *,char const *,char const *))
  Symbol name  : ?AskStringOkCancel@@YA_NPBD0HPADH@Z (bool __cdecl AskStringOkCancel(char const *,char const *,int,char *,int))
  Symbol name  : ?AskStringOkCancel@@YA_NPBD0PADH@Z (bool __cdecl AskStringOkCancel(char const *,char const *,char *,int))
  Symbol name  : ?AskYesNo@@YA_NPBD0ZZ (bool __cdecl AskYesNo(char const *,char const *,...))
  Symbol name  : ?AskYesNoCancel@@YAHPBD0ZZ (int __cdecl AskYesNoCancel(char const *,char const *,...))
  Symbol name  : ?AtMenuBuild@@YAXP6AXH@Z@Z (void __cdecl AtMenuBuild(void (__cdecl*)(int)))
  Symbol name  : ?AutoCantileverTune@@YA_NXZ (bool __cdecl AutoCantileverTune(void))
  Symbol name  : ?AutoGetNextWafer@@YA_NXZ (bool __cdecl AutoGetNextWafer(void))
  Symbol name  : ?AutoProgramDir@@YA?AUFileName@@XZ (struct FileName __cdecl AutoProgramDir(void))
  Symbol name  : ?AutoProgramFilePass@@YA_NAAUFileName@@0@Z (bool __cdecl AutoProgramFilePass(struct FileName &,struct FileName &))
  Symbol name  : ?AutoProgramIsCommandProgrammed@@YA_NAAUFileName@@W4command_id_type@@@Z (bool __cdecl AutoProgramIsCommandProgrammed(struct FileName &,enum command_id_type))
  Symbol name  : ?AutoProgramIsOfflineVisionProgrammed@@YA_NAAUFileName@@@Z (bool __cdecl AutoProgramIsOfflineVisionProgrammed(struct FileName &))
  Symbol name  : ?AutoProgramIsTipWidthCorrectionResult@@YA_NAAUFileName@@@Z (bool __cdecl AutoProgramIsTipWidthCorrectionResult(struct FileName &))
  Symbol name  : ?AutoProgramLimitsSet@@YA_NAAUFileName@@@Z (bool __cdecl AutoProgramLimitsSet(struct FileName &))
  Symbol name  : ?AutoReportDir@@YA?AUFileName@@XZ (struct FileName __cdecl AutoReportDir(void))
  Symbol name  : ?AutoTipQualCompensate@@YA_NAAN@Z (bool __cdecl AutoTipQualCompensate(double &))
  Symbol name  : ?AutoTipQualForCompensate@@YA_NAAUFileName@@@Z (bool __cdecl AutoTipQualForCompensate(struct FileName &))
  Symbol name  : ?AutoTipQualGetDataFilename@@YA?AUFileName@@XZ (struct FileName __cdecl AutoTipQualGetDataFilename(void))
  Symbol name  : ?AutoTipQualGetEtds@@YA_NAAN0@Z (bool __cdecl AutoTipQualGetEtds(double &,double &))
  Symbol name  : ?AutoTipQualGetSerialNumber@@YAPADXZ (char * __cdecl AutoTipQualGetSerialNumber(void))
  Symbol name  : ?AutoTipQualGetStatus@@YA?AW4tipStatusType@@PAD@Z (enum tipStatusType __cdecl AutoTipQualGetStatus(char *))
  Symbol name  : ?AutoTipQualRun@@YA?AW4tipStatusType@@AAUFileName@@0@Z (enum tipStatusType __cdecl AutoTipQualRun(struct FileName &,struct FileName &))
  Symbol name  : ?AutoTipQualTeach@@YA_NAAUFileName@@PAD@Z (bool __cdecl AutoTipQualTeach(struct FileName &,char *))
  Symbol name  : ?AutoTuneAbort@@YAXXZ (void __cdecl AutoTuneAbort(void))
  Symbol name  : ?AutoTuneFinish@@YA_NXZ (bool __cdecl AutoTuneFinish(void))
  Symbol name  : ?AutoTuneIsDone@@YA_NXZ (bool __cdecl AutoTuneIsDone(void))
  Symbol name  : ?AutoTuneStart@@YAXXZ (void __cdecl AutoTuneStart(void))
  Symbol name  : ?BeginSPMZoom@@YA_NVSiteHandle@@AAVSPMZoomParms@@AAVpathname@@@Z (bool __cdecl BeginSPMZoom(class SiteHandle,class SPMZoomParms &,class pathname &))
  Symbol name  : ?Buggy@@YA_NPBD@Z (bool __cdecl Buggy(char const *))
  Symbol name  : ?Buggy@@YA_NW4DebugType@@PBD@Z (bool __cdecl Buggy(enum DebugType,char const *))
  Symbol name  : ?BuildAutoPgmList@@YAXPAXPAD@Z (void __cdecl BuildAutoPgmList(void *,char *))
  Symbol name  : ?BuildUserMenus@@YAXXZ (void __cdecl BuildUserMenus(void))
  Symbol name  : ?BumpCurrentSlot@@YAHXZ (int __cdecl BumpCurrentSlot(void))
  Symbol name  : ?Capture@@YA_NHW4CaptureFlags@@@Z (bool __cdecl Capture(int,enum CaptureFlags))
  Symbol name  : ?CaptureDir@@YA?AUFileName@@XZ (struct FileName __cdecl CaptureDir(void))
  Symbol name  : ?CapturePlane@@YA_NI@Z (bool __cdecl CapturePlane(unsigned int))
  Symbol name  : ?CarrierIDReadData@@YA_NPADH@Z (bool __cdecl CarrierIDReadData(char *,int))
  Symbol name  : ?CassetteInit@@YA_NPAX@Z (bool __cdecl CassetteInit(void *))
  Symbol name  : ?CassetteInit@@YA_NVInstrHandle@@_N@Z (bool __cdecl CassetteInit(class InstrHandle,bool))
  Symbol name  : ?CassetteSize@@YA?AW4ValidWaferSizes@@H@Z (enum ValidWaferSizes __cdecl CassetteSize(int))
  Symbol name  : ?CenterSiteFileOpen@@YAPAXABUFileName@@@Z (void * __cdecl CenterSiteFileOpen(struct FileName const &))
  Symbol name  : ?ChangeFile@@YA_NAAUFileName@@PAD@Z (bool __cdecl ChangeFile(struct FileName &,char *))
  Symbol name  : ?ChangeFileBase@@YA_NAAUFileName@@PAD@Z (bool __cdecl ChangeFileBase(struct FileName &,char *))
  Symbol name  : ?ChangeFileExtension@@YA_NAAUFileName@@PAD@Z (bool __cdecl ChangeFileExtension(struct FileName &,char *))
  Symbol name  : ?CharSiteFileEdit@@YA_NPAX@Z (bool __cdecl CharSiteFileEdit(void *))
  Symbol name  : ?CharSiteFileOpen@@YAPAXABUFileName@@@Z (void * __cdecl CharSiteFileOpen(struct FileName const &))
  Symbol name  : ?CharSiteFileOpenEx@@YAPAVSiteHandle@@ABUFileName@@@Z (class SiteHandle * __cdecl CharSiteFileOpenEx(struct FileName const &))
  Symbol name  : ?CheckLaserSum@@YA_NAAM@Z (bool __cdecl CheckLaserSum(float &))
  Symbol name  : ?ClearFinished@@YAXXZ (void __cdecl ClearFinished(void))
  Symbol name  : ?ClearMenuBar@@YAXXZ (void __cdecl ClearMenuBar(void))
  Symbol name  : ?ClosePod@@YAXXZ (void __cdecl ClosePod(void))
  Symbol name  : ?ComCTS@@YA_NH@Z (bool __cdecl ComCTS(int))
  Symbol name  : ?ComClose@@YAXH@Z (void __cdecl ComClose(int))
  Symbol name  : ?ComDSR@@YA_NH@Z (bool __cdecl ComDSR(int))
  Symbol name  : ?ComDTR@@YA_NH@Z (bool __cdecl ComDTR(int))
  Symbol name  : ?ComFlush@@YAXH@Z (void __cdecl ComFlush(int))
  Symbol name  : ?ComGet@@YA_NHPADAAH@Z (bool __cdecl ComGet(int,char *,int &))
  Symbol name  : ?ComInit@@YAXXZ (void __cdecl ComInit(void))
  Symbol name  : ?ComOpen@@YA_NHHDHH@Z (bool __cdecl ComOpen(int,int,char,int,int))
  Symbol name  : ?ComPut@@YA_NHPADAAH@Z (bool __cdecl ComPut(int,char *,int &))
  Symbol name  : ?ComRTS@@YA_NH@Z (bool __cdecl ComRTS(int))
  Symbol name  : ?ComRxError@@YAPADH@Z (char * __cdecl ComRxError(int))
  Symbol name  : ?ComSetDTR@@YA_NH_N@Z (bool __cdecl ComSetDTR(int,bool))
  Symbol name  : ?ComSetRTS@@YA_NH_N@Z (bool __cdecl ComSetRTS(int,bool))
  Symbol name  : ?ComSetRxTimeout@@YAXHM@Z (void __cdecl ComSetRxTimeout(int,float))
  Symbol name  : ?ComSetTxTimeout@@YAXHM@Z (void __cdecl ComSetTxTimeout(int,float))
  Symbol name  : ?ComTxError@@YAPADH@Z (char * __cdecl ComTxError(int))
  Symbol name  : ?ConvertFiles@@YAXXZ (void __cdecl ConvertFiles(void))
  Symbol name  : ?CreateDir@@YA_NAAUFileName@@@Z (bool __cdecl CreateDir(struct FileName &))
  Symbol name  : ?CreateNestedDir@@YA_NAAUFileName@@@Z (bool __cdecl CreateNestedDir(struct FileName &))
  Symbol name  : ?CurrentDir@@YA?AUFileName@@XZ (struct FileName __cdecl CurrentDir(void))
  Symbol name  : ?CurrentFile@@YA?AUFileName@@XZ (struct FileName __cdecl CurrentFile(void))
  Symbol name  : ?CustomAutoReport@@YAXPADP6A_NXZ11P6A_N0AAUFileName@@@Z@Z (void __cdecl CustomAutoReport(char *,bool (__cdecl*)(void),bool (__cdecl*)(void),bool (__cdecl*)(void),bool (__cdecl*)(char *,struct FileName &)))
  Symbol name  : ?CustomMenuBar@@YAXXZ (void __cdecl CustomMenuBar(void))
  Symbol name  : ?DataScanAngle@@YANXZ (double __cdecl DataScanAngle(void))
  Symbol name  : ?DataScanRate@@YANXZ (double __cdecl DataScanRate(void))
  Symbol name  : ?DataSetpoint@@YANXZ (double __cdecl DataSetpoint(void))
  Symbol name  : ?DateString@@YAPADXZ (char * __cdecl DateString(void))
  Symbol name  : ?Debug@@YAHPBDZZ (int __cdecl Debug(char const *,...))
  Symbol name  : ?Debug@@YAHW4DebugType@@HPBDZZ (int __cdecl Debug(enum DebugType,int,char const *,...))
  Symbol name  : ?Debug@@YAHW4DebugType@@PBDZZ (int __cdecl Debug(enum DebugType,char const *,...))
  Symbol name  : ?DebugPause@@YAHPBDZZ (int __cdecl DebugPause(char const *,...))
  Symbol name  : ?DelMenuItem@@YAXPAX@Z (void __cdecl DelMenuItem(void *))
  Symbol name  : ?DeleteMacroStatusBar@@YAXXZ (void __cdecl DeleteMacroStatusBar(void))
  Symbol name  : ?DeleteVisionModel@@YAXAAUFileName@@@Z (void __cdecl DeleteVisionModel(struct FileName &))
  Symbol name  : ?DiagExtractWafer@@YA_NXZ (bool __cdecl DiagExtractWafer(void))
  Symbol name  : ?DiagLoadD5000@@YA_NXZ (bool __cdecl DiagLoadD5000(void))
  Symbol name  : ?DiagPrealignWafer@@YA_NXZ (bool __cdecl DiagPrealignWafer(void))
  Symbol name  : ?DiagReplaceWafer@@YA_NXZ (bool __cdecl DiagReplaceWafer(void))
  Symbol name  : ?DiagUnloadD5000@@YA_NXZ (bool __cdecl DiagUnloadD5000(void))
  Symbol name  : ?DiagUnloadPrealigner@@YA_NXZ (bool __cdecl DiagUnloadPrealigner(void))
  Symbol name  : ?DialogSeparator@@YAXXZ (void __cdecl DialogSeparator(void))
  Symbol name  : ?DialogToFront@@YAXPAX@Z (void __cdecl DialogToFront(void *))
  Symbol name  : ?DiePicker@@YA_NPAX@Z (bool __cdecl DiePicker(void *))
  Symbol name  : ?DirExists@@YA_NAAUFileName@@@Z (bool __cdecl DirExists(struct FileName &))
  Symbol name  : ?DirPick@@YA_NPADAAUFileName@@W4FPBFlags@@@Z (bool __cdecl DirPick(char *,struct FileName &,enum FPBFlags))
  Symbol name  : ?DisableLoaderLog@@YAXXZ (void __cdecl DisableLoaderLog(void))
  Symbol name  : ?DisableLoaderMonitor@@YAXXZ (void __cdecl DisableLoaderMonitor(void))
  Symbol name  : ?DisplayAutoResult@@YAXPAD@Z (void __cdecl DisplayAutoResult(char *))
  Symbol name  : ?DoFeatureEngage@@YAHXZ (int __cdecl DoFeatureEngage(void))
  Symbol name  : ?DoHeightEngage@@YAHXZ (int __cdecl DoHeightEngage(void))
  Symbol name  : ?DoSPMZoom@@YA_NPAX@Z (bool __cdecl DoSPMZoom(void *))
  Symbol name  : ?DoSPMZoom@@YA_NVSiteHandle@@@Z (bool __cdecl DoSPMZoom(class SiteHandle))
  Symbol name  : ?DoZoomIn@@YAXXZ (void __cdecl DoZoomIn(void))
  Symbol name  : ?DoZoomOut@@YAXXZ (void __cdecl DoZoomOut(void))
  Symbol name  : ?DualInstance@@YA_NXZ (bool __cdecl DualInstance(void))
  Symbol name  : ?EditRTParms@@YAXXZ (void __cdecl EditRTParms(void))
  Symbol name  : ?EnableLoadPort@@YA_NHH@Z (bool __cdecl EnableLoadPort(int,int))
  Symbol name  : ?EnableLoaderLog@@YAXXZ (void __cdecl EnableLoaderLog(void))
  Symbol name  : ?EnableLoaderMonitor@@YAXXZ (void __cdecl EnableLoaderMonitor(void))
  Symbol name  : ?EndAutoProgram@@YAXPAD_N@Z (void __cdecl EndAutoProgram(char *,bool))
  Symbol name  : ?Engage@@YA_NXZ (bool __cdecl Engage(void))
  Symbol name  : ?EraseMessage@@YAXXZ (void __cdecl EraseMessage(void))
  Symbol name  : ?ExeDir@@YA?AUFileName@@XZ (struct FileName __cdecl ExeDir(void))
  Symbol name  : ?FalseEngage@@YA_NXZ (bool __cdecl FalseEngage(void))
  Symbol name  : ?FileCopy@@YA_NAAUFileName@@0_N@Z (bool __cdecl FileCopy(struct FileName &,struct FileName &,bool))
  Symbol name  : ?FileDelete@@YA_NAAUFileName@@@Z (bool __cdecl FileDelete(struct FileName &))
  Symbol name  : ?FileExists@@YA_NAAUFileName@@@Z (bool __cdecl FileExists(struct FileName &))
  Symbol name  : ?FileMove@@YA_NAAUFileName@@0_N@Z (bool __cdecl FileMove(struct FileName &,struct FileName &,bool))
  Symbol name  : ?FilePick@@YA_NPADAAUFileName@@W4FPBFlags@@@Z (bool __cdecl FilePick(char *,struct FileName &,enum FPBFlags))
  Symbol name  : ?FilePickWild@@YA_NPADAAUFileName@@0W4FPBFlags@@@Z (bool __cdecl FilePickWild(char *,struct FileName &,char *,enum FPBFlags))
  Symbol name  : ?FilePrint@@YA_NAAUFileName@@@Z (bool __cdecl FilePrint(struct FileName &))
  Symbol name  : ?FileRename@@YA_NAAUFileName@@0_N@Z (bool __cdecl FileRename(struct FileName &,struct FileName &,bool))
  Symbol name  : ?FileTime@@YAPAUtm@@XZ (struct tm * __cdecl FileTime(void))
  Symbol name  : ?FindMenuItem@@YAPAXPAXPAD@Z (void * __cdecl FindMenuItem(void *,char *))
  Symbol name  : ?FindNextFile@@YA_NAAUFileName@@@Z (bool __cdecl FindNextFile(struct FileName &))
  Symbol name  : ?FinishCapture@@YAXXZ (void __cdecl FinishCapture(void))
  Symbol name  : ?FinishSPMZoom@@YA_NAAVSPMZoomParms@@_N@Z (bool __cdecl FinishSPMZoom(class SPMZoomParms &,bool))
  Symbol name  : ?FrameDown@@YAXXZ (void __cdecl FrameDown(void))
  Symbol name  : ?FrameDownPosition@@YAXHHH@Z (void __cdecl FrameDownPosition(int,int,int))
  Symbol name  : ?FrameUp@@YAXXZ (void __cdecl FrameUp(void))
  Symbol name  : ?FrameUpPosition@@YAXHHH@Z (void __cdecl FrameUpPosition(int,int,int))
  Symbol name  : ?GEMSendAutoResult@@YAXXZ (void __cdecl GEMSendAutoResult(void))
  Symbol name  : ?GEMSendTipQual@@YAXPAD0NN0@Z (void __cdecl GEMSendTipQual(char *,char *,double,double,char *))
  Symbol name  : ?GemAlarm@@YAXK_N0@Z (void __cdecl GemAlarm(unsigned long,bool,bool))
  Symbol name  : ?GemClearAllAlarms@@YAXXZ (void __cdecl GemClearAllAlarms(void))
  Symbol name  : ?GemIncrWaferCount@@YAXXZ (void __cdecl GemIncrWaferCount(void))
  Symbol name  : ?GemLotId@@YAPADXZ (char * __cdecl GemLotId(void))
  Symbol name  : ?GemPackedSlot@@YAHXZ (int __cdecl GemPackedSlot(void))
  Symbol name  : ?GemRecipeChange@@YAX_NPAD@Z (void __cdecl GemRecipeChange(bool,char *))
  Symbol name  : ?GemRecipeDelete@@YAXPAD@Z (void __cdecl GemRecipeDelete(char *))
  Symbol name  : ?GemReportEvent@@YAXKHPAH@Z (void __cdecl GemReportEvent(unsigned long,int,int *))
  Symbol name  : ?GemResetPPSelect@@YAXXZ (void __cdecl GemResetPPSelect(void))
  Symbol name  : ?GemSetPPExecName@@YAXPAD@Z (void __cdecl GemSetPPExecName(char *))
  Symbol name  : ?GemWhoStartedRemoteRecipe@@YA_NXZ (bool __cdecl GemWhoStartedRemoteRecipe(void))
  Symbol name  : ?GetAspectRatio@@YAMXZ (float __cdecl GetAspectRatio(void))
  Symbol name  : ?GetAutoProgramPath@@YAXAAPAXAAUFileName@@@Z (void __cdecl GetAutoProgramPath(void * &,struct FileName &))
  Symbol name  : ?GetButtonMode@@YA?AW4button_mode@@H@Z (enum button_mode __cdecl GetButtonMode(int))
  Symbol name  : ?GetButtonNumber@@YAHXZ (int __cdecl GetButtonNumber(void))
  Symbol name  : ?GetCarrIDReadPosition@@YAHH@Z (int __cdecl GetCarrIDReadPosition(int))
  Symbol name  : ?GetCarrierIDReadPages@@YAHH@Z (int __cdecl GetCarrierIDReadPages(int))
  Symbol name  : ?GetCassetteContext@@YAHXZ (int __cdecl GetCassetteContext(void))
  Symbol name  : ?GetCurrentLP@@YAHXZ (int __cdecl GetCurrentLP(void))
  Symbol name  : ?GetCurrentSlot@@YAHXZ (int __cdecl GetCurrentSlot(void))
  Symbol name  : ?GetDir@@YA?AUFileName@@AAU1@@Z (struct FileName __cdecl GetDir(struct FileName &))
  Symbol name  : ?GetDirectionScanned@@YAMXZ (float __cdecl GetDirectionScanned(void))
  Symbol name  : ?GetDriveFreq@@YAMXZ (float __cdecl GetDriveFreq(void))
  Symbol name  : ?GetEngageStatus@@YAHXZ (int __cdecl GetEngageStatus(void))
  Symbol name  : ?GetExtraSiteInfo@@YA_NPAXAAUExtraSiteInfo@@@Z (bool __cdecl GetExtraSiteInfo(void *,struct ExtraSiteInfo &))
  Symbol name  : ?GetFailCount@@YAHXZ (int __cdecl GetFailCount(void))
  Symbol name  : ?GetFeatureEngage@@YA_NXZ (bool __cdecl GetFeatureEngage(void))
  Symbol name  : ?GetFile@@YAPADAAUFileName@@@Z (char * __cdecl GetFile(struct FileName &))
  Symbol name  : ?GetFileBase@@YAPADAAUFileName@@@Z (char * __cdecl GetFileBase(struct FileName &))
  Symbol name  : ?GetFileCount@@YAHXZ (int __cdecl GetFileCount(void))
  Symbol name  : ?GetFileExtension@@YAPADAAUFileName@@@Z (char * __cdecl GetFileExtension(struct FileName &))
  Symbol name  : ?GetFileFromStruct@@YAPADAAUFileName@@@Z (char * __cdecl GetFileFromStruct(struct FileName &))
  Symbol name  : ?GetFirstCommandBase@@YAPAXXZ (void * __cdecl GetFirstCommandBase(void))
  Symbol name  : ?GetFirstCommandOutput@@YAPAXXZ (void * __cdecl GetFirstCommandOutput(void))
  Symbol name  : ?GetFollowingCommandOutput@@YAPAXPAUtagOutputList@@@Z (void * __cdecl GetFollowingCommandOutput(struct tagOutputList *))
  Symbol name  : ?GetHeightEngage@@YA_NXZ (bool __cdecl GetHeightEngage(void))
  Symbol name  : ?GetHelpPath@@YAPADXZ (char * __cdecl GetHelpPath(void))
  Symbol name  : ?GetIncludePath@@YAXAAUFileName@@@Z (void __cdecl GetIncludePath(struct FileName &))
  Symbol name  : ?GetInstrPath@@YAXAAUFileName@@@Z (void __cdecl GetInstrPath(struct FileName &))
  Symbol name  : ?GetIntegralGain@@YANXZ (double __cdecl GetIntegralGain(void))
  Symbol name  : ?GetInventory@@YAHH@Z (int __cdecl GetInventory(int))
  Symbol name  : ?GetInventory@@YAHXZ (int __cdecl GetInventory(void))
  Symbol name  : ?GetLastLoaderError@@YAHXZ (int __cdecl GetLastLoaderError(void))
  Symbol name  : ?GetMacroPath@@YAXAAUFileName@@@Z (void __cdecl GetMacroPath(struct FileName &))
  Symbol name  : ?GetNavigatorNote@@YA_NPAXAAPAD@Z (bool __cdecl GetNavigatorNote(void *,char * &))
  Symbol name  : ?GetNextAutoPgmSite@@YAHPAXAAUFileName@@AA_N_N@Z (int __cdecl GetNextAutoPgmSite(void *,struct FileName &,bool &,bool))
  Symbol name  : ?GetNextCommandBase@@YAPAXXZ (void * __cdecl GetNextCommandBase(void))
  Symbol name  : ?GetNextCommandInstance@@YAPAXXZ (void * __cdecl GetNextCommandInstance(void))
  Symbol name  : ?GetNextCommandOutput@@YAPAXXZ (void * __cdecl GetNextCommandOutput(void))
  Symbol name  : ?GetNextSlot@@YAHXZ (int __cdecl GetNextSlot(void))
  Symbol name  : ?GetNextWafer@@YAHXZ (int __cdecl GetNextWafer(void))
  Symbol name  : ?GetNextWaferSelect@@YA?AW4InventoryControl@@XZ (enum InventoryControl __cdecl GetNextWaferSelect(void))
  Symbol name  : ?GetParameterPath@@YAXAAUFileName@@@Z (void __cdecl GetParameterPath(struct FileName &))
  Symbol name  : ?GetProportionalGain@@YANXZ (double __cdecl GetProportionalGain(void))
  Symbol name  : ?GetRecipeLP@@YAHXZ (int __cdecl GetRecipeLP(void))
  Symbol name  : ?GetRecipePath@@YAXAAUFileName@@@Z (void __cdecl GetRecipePath(struct FileName &))
  Symbol name  : ?GetRecipePathSysPar@@YAXAAUFileName@@@Z (void __cdecl GetRecipePathSysPar(struct FileName &))
  Symbol name  : ?GetRegFailMode@@YAHXZ (int __cdecl GetRegFailMode(void))
  Symbol name  : ?GetSamplesPerLine@@YAHXZ (int __cdecl GetSamplesPerLine(void))
  Symbol name  : ?GetScanAngle@@YAMXZ (float __cdecl GetScanAngle(void))
  Symbol name  : ?GetScanLines@@YAHXZ (int __cdecl GetScanLines(void))
  Symbol name  : ?GetScanRate@@YAMXZ (float __cdecl GetScanRate(void))
  Symbol name  : ?GetScanSize@@YAMXZ (float __cdecl GetScanSize(void))
  Symbol name  : ?GetSetpoint@@YANXZ (double __cdecl GetSetpoint(void))
  Symbol name  : ?GetShortWithdrawDistance@@YAMXZ (float __cdecl GetShortWithdrawDistance(void))
  Symbol name  : ?GetSiteAutoProgram@@YA?AUFileName@@PAX@Z (struct FileName __cdecl GetSiteAutoProgram(void *))
  Symbol name  : ?GetSiteAxis@@YAHPAX@Z (int __cdecl GetSiteAxis(void *))
  Symbol name  : ?GetSiteQualAutoProgram@@YA?AUFileName@@PAX@Z (struct FileName __cdecl GetSiteQualAutoProgram(void *))
  Symbol name  : ?GetSiteQualAutoProgram@@YA?AUFileName@@VSiteHandle@@@Z (struct FileName __cdecl GetSiteQualAutoProgram(class SiteHandle))
  Symbol name  : ?GetSiteRTParms@@YA?AUFileName@@PAX@Z (struct FileName __cdecl GetSiteRTParms(void *))
  Symbol name  : ?GetStartupPath@@YAXAAUFileName@@@Z (void __cdecl GetStartupPath(struct FileName &))
  Symbol name  : ?GetTipSerialNumber@@YAPADXZ (char * __cdecl GetTipSerialNumber(void))
  Symbol name  : ?GetValueFormat@@YAPADXZ (char * __cdecl GetValueFormat(void))
  Symbol name  : ?GetVisionBaselinePath@@YAXAAUFileName@@@Z (void __cdecl GetVisionBaselinePath(struct FileName &))
  Symbol name  : ?GetVisionModelPath@@YAXAAUFileName@@@Z (void __cdecl GetVisionModelPath(struct FileName &))
  Symbol name  : ?GetWIDRInfo@@YA_NPAHPAD@Z (bool __cdecl GetWIDRInfo(int *,char *))
  Symbol name  : ?GetXOffset@@YAMXZ (float __cdecl GetXOffset(void))
  Symbol name  : ?GetXSlotInventory@@YAHH@Z (int __cdecl GetXSlotInventory(int))
  Symbol name  : ?GetXSlotInventory@@YAHXZ (int __cdecl GetXSlotInventory(void))
  Symbol name  : ?GetYOffset@@YAMXZ (float __cdecl GetYOffset(void))
  Symbol name  : ?HeapDump@@YAXXZ (void __cdecl HeapDump(void))
  Symbol name  : ?HeapMark@@YAXXZ (void __cdecl HeapMark(void))
  Symbol name  : ?HideDialog@@YAXPAX@Z (void __cdecl HideDialog(void *))
  Symbol name  : ?HideRTPanels@@YAXXZ (void __cdecl HideRTPanels(void))
  Symbol name  : ?ImageCenterAtEngage@@YAX_N@Z (void __cdecl ImageCenterAtEngage(bool))
  Symbol name  : ?ImageCenterSiteEdit@@YA_NPAX@Z (bool __cdecl ImageCenterSiteEdit(void *))
  Symbol name  : ?ImageMode@@YAXXZ (void __cdecl ImageMode(void))
  Symbol name  : ?ImmediateMacroAbort@@YAXPAD_N@Z (void __cdecl ImmediateMacroAbort(char *,bool))
  Symbol name  : ?IncrementTotalWafers@@YAXXZ (void __cdecl IncrementTotalWafers(void))
  Symbol name  : ?InitAutoPrgFileIndex@@YAXAAVSiteHandle@@@Z (void __cdecl InitAutoPrgFileIndex(class SiteHandle &))
  Symbol name  : ?InitAutoProgram@@YA_NAAUFileName@@0PAD1_N@Z (bool __cdecl InitAutoProgram(struct FileName &,struct FileName &,char *,char *,bool))
  Symbol name  : ?InstrAddCoord3D@@YA_NPAXQAPADUCoord3D@@@Z (bool __cdecl InstrAddCoord3D(void *,char * * const,struct Coord3D))
  Symbol name  : ?InstrAddDouble@@YA_NPAXPADN@Z (bool __cdecl InstrAddDouble(void *,char *,double))
  Symbol name  : ?InstrAddFileName@@YA_NPAXPADABUFileName@@@Z (bool __cdecl InstrAddFileName(void *,char *,struct FileName const &))
  Symbol name  : ?InstrAddFloat@@YA_NPAXPADM@Z (bool __cdecl InstrAddFloat(void *,char *,float))
  Symbol name  : ?InstrAddInt@@YA_NPAXPADH@Z (bool __cdecl InstrAddInt(void *,char *,int))
  Symbol name  : ?InstrAddSection@@YA_NPAXPBD@Z (bool __cdecl InstrAddSection(void *,char const *))
  Symbol name  : ?InstrAddStr@@YA_NPAXPADPBD@Z (bool __cdecl InstrAddStr(void *,char *,char const *))
  Symbol name  : ?InstrChangeDouble@@YA_NPAXN@Z (bool __cdecl InstrChangeDouble(void *,double))
  Symbol name  : ?InstrChangeFileName@@YA_NPAXABUFileName@@@Z (bool __cdecl InstrChangeFileName(void *,struct FileName const &))
  Symbol name  : ?InstrChangeFloat@@YA_NPAXM@Z (bool __cdecl InstrChangeFloat(void *,float))
  Symbol name  : ?InstrChangeInt@@YA_NPAXH@Z (bool __cdecl InstrChangeInt(void *,int))
  Symbol name  : ?InstrChangeSection@@YA_NPAXPBD@Z (bool __cdecl InstrChangeSection(void *,char const *))
  Symbol name  : ?InstrChangeStr@@YA_NPAXPAD@Z (bool __cdecl InstrChangeStr(void *,char *))
  Symbol name  : ?InstrClearSection@@YA_NPAX@Z (bool __cdecl InstrClearSection(void *))
  Symbol name  : ?InstrCreate@@YAPAXAAUFileName@@@Z (void * __cdecl InstrCreate(struct FileName &))
  Symbol name  : ?InstrCurrentItem@@YA?AW4InstrType@@PAXAAPAD1@Z (enum InstrType __cdecl InstrCurrentItem(void *,char * &,char * &))
  Symbol name  : ?InstrDeleteItem@@YA_NPAX@Z (bool __cdecl InstrDeleteItem(void *))
  Symbol name  : ?InstrDeleteSection@@YA_NPAX@Z (bool __cdecl InstrDeleteSection(void *))
  Symbol name  : ?InstrDestroy@@YAXPAX@Z (void __cdecl InstrDestroy(void *))
  Symbol name  : ?InstrDir@@YA?AUFileName@@XZ (struct FileName __cdecl InstrDir(void))
  Symbol name  : ?InstrEnterSection@@YA_NPAX@Z (bool __cdecl InstrEnterSection(void *))
  Symbol name  : ?InstrExitSection@@YA_NPAX@Z (bool __cdecl InstrExitSection(void *))
  Symbol name  : ?InstrFileName@@YA_NPAXAAUFileName@@@Z (bool __cdecl InstrFileName(void *,struct FileName &))
  Symbol name  : ?InstrFirstBool@@YA_NPAXPADAA_N@Z (bool __cdecl InstrFirstBool(void *,char *,bool &))
  Symbol name  : ?InstrFirstCoord3D@@YA_NPAXQAPADAAUCoord3D@@@Z (bool __cdecl InstrFirstCoord3D(void *,char * * const,struct Coord3D &))
  Symbol name  : ?InstrFirstDouble@@YA_NPAXPADAAN@Z (bool __cdecl InstrFirstDouble(void *,char *,double &))
  Symbol name  : ?InstrFirstFileName@@YA_NPAXPADAAUFileName@@@Z (bool __cdecl InstrFirstFileName(void *,char *,struct FileName &))
  Symbol name  : ?InstrFirstFloat@@YA_NPAXPADAAM@Z (bool __cdecl InstrFirstFloat(void *,char *,float &))
  Symbol name  : ?InstrFirstInt@@YA_NPAXPADAAH@Z (bool __cdecl InstrFirstInt(void *,char *,int &))
  Symbol name  : ?InstrFirstRecord@@YA_NPAXPAD@Z (bool __cdecl InstrFirstRecord(void *,char *))
  Symbol name  : ?InstrFirstSection@@YA_NPAXPAD@Z (bool __cdecl InstrFirstSection(void *,char *))
  Symbol name  : ?InstrFirstStr@@YA_NPAXPADAAPAD@Z (bool __cdecl InstrFirstStr(void *,char *,char * &))
  Symbol name  : ?InstrNextCoord3D@@YA_NPAXQAPADAAUCoord3D@@@Z (bool __cdecl InstrNextCoord3D(void *,char * * const,struct Coord3D &))
  Symbol name  : ?InstrNextDouble@@YA_NPAXPADAAN@Z (bool __cdecl InstrNextDouble(void *,char *,double &))
  Symbol name  : ?InstrNextFileName@@YA_NPAXPADAAUFileName@@@Z (bool __cdecl InstrNextFileName(void *,char *,struct FileName &))
  Symbol name  : ?InstrNextFloat@@YA_NPAXPADAAM@Z (bool __cdecl InstrNextFloat(void *,char *,float &))
  Symbol name  : ?InstrNextInt@@YA_NPAXPADAAH@Z (bool __cdecl InstrNextInt(void *,char *,int &))
  Symbol name  : ?InstrNextItem@@YA?AW4InstrType@@PAXAAPAD1@Z (enum InstrType __cdecl InstrNextItem(void *,char * &,char * &))
  Symbol name  : ?InstrNextRecord@@YA_NPAXPAD@Z (bool __cdecl InstrNextRecord(void *,char *))
  Symbol name  : ?InstrNextSection@@YA_NPAXPAD@Z (bool __cdecl InstrNextSection(void *,char *))
  Symbol name  : ?InstrNextStr@@YA_NPAXPADAAPAD@Z (bool __cdecl InstrNextStr(void *,char *,char * &))
  Symbol name  : ?InstrPrevCoord3D@@YA_NPAXQAPADAAUCoord3D@@@Z (bool __cdecl InstrPrevCoord3D(void *,char * * const,struct Coord3D &))
  Symbol name  : ?InstrPrevDouble@@YA_NPAXPADAAN@Z (bool __cdecl InstrPrevDouble(void *,char *,double &))
  Symbol name  : ?InstrPrevFileName@@YA_NPAXPADAAUFileName@@@Z (bool __cdecl InstrPrevFileName(void *,char *,struct FileName &))
  Symbol name  : ?InstrPrevFloat@@YA_NPAXPADAAM@Z (bool __cdecl InstrPrevFloat(void *,char *,float &))
  Symbol name  : ?InstrPrevInt@@YA_NPAXPADAAH@Z (bool __cdecl InstrPrevInt(void *,char *,int &))
  Symbol name  : ?InstrPrevItem@@YA?AW4InstrType@@PAXAAPAD1@Z (enum InstrType __cdecl InstrPrevItem(void *,char * &,char * &))
  Symbol name  : ?InstrPrevRecord@@YA_NPAXPAD@Z (bool __cdecl InstrPrevRecord(void *,char *))
  Symbol name  : ?InstrPrevSection@@YA_NPAXPAD@Z (bool __cdecl InstrPrevSection(void *,char *))
  Symbol name  : ?InstrPrevStr@@YA_NPAXPADAAPAD@Z (bool __cdecl InstrPrevStr(void *,char *,char * &))
  Symbol name  : ?InstrRead@@YA_NPAXW4IHReadFlags@@@Z (bool __cdecl InstrRead(void *,enum IHReadFlags))
  Symbol name  : ?InstrRename@@YA_NPAXAAUFileName@@@Z (bool __cdecl InstrRename(void *,struct FileName &))
  Symbol name  : ?InstrSeek@@YA_NPAXW4InstrType@@@Z (bool __cdecl InstrSeek(void *,enum InstrType))
  Symbol name  : ?InstrSetCoord3D@@YA_NPAXQAPADUCoord3D@@@Z (bool __cdecl InstrSetCoord3D(void *,char * * const,struct Coord3D))
  Symbol name  : ?InstrSetDouble@@YA_NPAXPBDN@Z (bool __cdecl InstrSetDouble(void *,char const *,double))
  Symbol name  : ?InstrSetFileName@@YA_NPAXPBDABUFileName@@@Z (bool __cdecl InstrSetFileName(void *,char const *,struct FileName const &))
  Symbol name  : ?InstrSetFloat@@YA_NPAXPBDM@Z (bool __cdecl InstrSetFloat(void *,char const *,float))
  Symbol name  : ?InstrSetInt@@YA_NPAXPBDH@Z (bool __cdecl InstrSetInt(void *,char const *,int))
  Symbol name  : ?InstrSetSection@@YA_NPAXPBD@Z (bool __cdecl InstrSetSection(void *,char const *))
  Symbol name  : ?InstrSetStr@@YA_NPAXPBD1@Z (bool __cdecl InstrSetStr(void *,char const *,char const *))
  Symbol name  : ?InstrWrite@@YA_NPAX@Z (bool __cdecl InstrWrite(void *))
  Symbol name  : ?IsCaptureDone@@YA_NXZ (bool __cdecl IsCaptureDone(void))
  Symbol name  : ?IsCarrierIDRead@@YA_NXZ (bool __cdecl IsCarrierIDRead(void))
  Symbol name  : ?IsCassettePresent@@YA_NH_N@Z (bool __cdecl IsCassettePresent(int,bool))
  Symbol name  : ?IsCassettePresent@@YA_N_N@Z (bool __cdecl IsCassettePresent(bool))
  Symbol name  : ?IsClosedLoop@@YA_NXZ (bool __cdecl IsClosedLoop(void))
  Symbol name  : ?IsCmdDebug@@YA_NXZ (bool __cdecl IsCmdDebug(void))
  Symbol name  : ?IsD3000Stage@@YA_NXZ (bool __cdecl IsD3000Stage(void))
  Symbol name  : ?IsD9Class@@YA_NXZ (bool __cdecl IsD9Class(void))
  Symbol name  : ?IsDoorClosed@@YA_N_N@Z (bool __cdecl IsDoorClosed(bool))
  Symbol name  : ?IsDualCassette@@YA_NXZ (bool __cdecl IsDualCassette(void))
  Symbol name  : ?IsEngaged@@YA_NXZ (bool __cdecl IsEngaged(void))
  Symbol name  : ?IsGemOnlineLocal@@YA_NXZ (bool __cdecl IsGemOnlineLocal(void))
  Symbol name  : ?IsGemOnlineRemote@@YA_NXZ (bool __cdecl IsGemOnlineRemote(void))
  Symbol name  : ?IsGemRecipeStarted@@YA_NXZ (bool __cdecl IsGemRecipeStarted(void))
  Symbol name  : ?IsGemRemoteRecipeRunning@@YA_NXZ (bool __cdecl IsGemRemoteRecipeRunning(void))
  Symbol name  : ?IsMessageBoxUp@@YA_NXZ (bool __cdecl IsMessageBoxUp(void))
  Symbol name  : ?IsNonAmhsCarrierArrived@@YA_NH@Z (bool __cdecl IsNonAmhsCarrierArrived(int))
  Symbol name  : ?IsNonAmhsCarrierRemoved@@YA_NH@Z (bool __cdecl IsNonAmhsCarrierRemoved(int))
  Symbol name  : ?IsOffLine@@YA_NXZ (bool __cdecl IsOffLine(void))
  Symbol name  : ?IsPioFault@@YA_NH@Z (bool __cdecl IsPioFault(int))
  Symbol name  : ?IsRealTime@@YA_NXZ (bool __cdecl IsRealTime(void))
  Symbol name  : ?IsRetrieveWaferName@@YA_NXZ (bool __cdecl IsRetrieveWaferName(void))
  Symbol name  : ?IsReviewInventory@@YA_NXZ (bool __cdecl IsReviewInventory(void))
  Symbol name  : ?IsSeries3Foup@@YA_NH@Z (bool __cdecl IsSeries3Foup(int))
  Symbol name  : ?IsShortWithdrawn@@YA_NXZ (bool __cdecl IsShortWithdrawn(void))
  Symbol name  : ?IsStageInitialized@@YA_NXZ (bool __cdecl IsStageInitialized(void))
  Symbol name  : ?IsStageRecoverable@@YA_NXZ (bool __cdecl IsStageRecoverable(void))
  Symbol name  : ?IsTappingMode@@YA_NXZ (bool __cdecl IsTappingMode(void))
  Symbol name  : ?IsTeach@@YA_NXZ (bool __cdecl IsTeach(void))
  Symbol name  : ?IsTipExchange@@YA_NXZ (bool __cdecl IsTipExchange(void))
  Symbol name  : ?IsTopCon@@YA_NXZ (bool __cdecl IsTopCon(void))
  Symbol name  : ?IsTuneGood@@YA_NM@Z (bool __cdecl IsTuneGood(float))
  Symbol name  : ?IsUniqueRecipeNameEnabled@@YA_NXZ (bool __cdecl IsUniqueRecipeNameEnabled(void))
  Symbol name  : ?IsValidFileName@@YA_NAAUFileName@@@Z (bool __cdecl IsValidFileName(struct FileName &))
  Symbol name  : ?IsWaferIDRead@@YA_NXZ (bool __cdecl IsWaferIDRead(void))
  Symbol name  : ?IsWaferOnChuck@@YA_NXZ (bool __cdecl IsWaferOnChuck(void))
  Symbol name  : ?IsWaferOnEE@@YA_NXZ (bool __cdecl IsWaferOnEE(void))
  Symbol name  : ?IsWaferOnPA@@YA_NXZ (bool __cdecl IsWaferOnPA(void))
  Symbol name  : ?IsWithdrawn@@YA_NXZ (bool __cdecl IsWithdrawn(void))
  Symbol name  : ?IsXferLoadCompleted@@YA_NH@Z (bool __cdecl IsXferLoadCompleted(int))
  Symbol name  : ?IsXferLoadStarted@@YA_NH@Z (bool __cdecl IsXferLoadStarted(int))
  Symbol name  : ?IsXferUnloadCompleted@@YA_NH@Z (bool __cdecl IsXferUnloadCompleted(int))
  Symbol name  : ?IsXferUnloadStarted@@YA_NH@Z (bool __cdecl IsXferUnloadStarted(int))
  Symbol name  : ?LastCapturedFileName@@YA?AUFileName@@XZ (struct FileName __cdecl LastCapturedFileName(void))
  Symbol name  : ?LaunchAutoExecute@@YA_NHHUFileName@@00H_N@Z (bool __cdecl LaunchAutoExecute(int,int,struct FileName,struct FileName,struct FileName,int,bool))
  Symbol name  : ?LithoAbort@@YAXXZ (void __cdecl LithoAbort(void))
  Symbol name  : ?LithoBegin@@YA_NXZ (bool __cdecl LithoBegin(void))
  Symbol name  : ?LithoCenterXY@@YA_NXZ (bool __cdecl LithoCenterXY(void))
  Symbol name  : ?LithoDisplayStatusBox@@YAXXZ (void __cdecl LithoDisplayStatusBox(void))
  Symbol name  : ?LithoEnd@@YAXXZ (void __cdecl LithoEnd(void))
  Symbol name  : ?LithoFeedback@@YA_N_N@Z (bool __cdecl LithoFeedback(bool))
  Symbol name  : ?LithoGet@@YANW4LithoSignal@@@Z (double __cdecl LithoGet(enum LithoSignal))
  Symbol name  : ?LithoGetPosUM@@YA_NPAN0@Z (bool __cdecl LithoGetPosUM(double *,double *))
  Symbol name  : ?LithoGetSoft@@YANW4LithoSignal@@@Z (double __cdecl LithoGetSoft(enum LithoSignal))
  Symbol name  : ?LithoGetXPosUM@@YANXZ (double __cdecl LithoGetXPosUM(void))
  Symbol name  : ?LithoGetYPosUM@@YANXZ (double __cdecl LithoGetYPosUM(void))
  Symbol name  : ?LithoIsFeedbackOn@@YA_NXZ (bool __cdecl LithoIsFeedbackOn(void))
  Symbol name  : ?LithoIsScanning@@YA_NXZ (bool __cdecl LithoIsScanning(void))
  Symbol name  : ?LithoMoveZ@@YA_NNN@Z (bool __cdecl LithoMoveZ(double,double))
  Symbol name  : ?LithoPause@@YA_NN@Z (bool __cdecl LithoPause(double))
  Symbol name  : ?LithoPulse@@YA_NW4LithoSignal@@NN@Z (bool __cdecl LithoPulse(enum LithoSignal,double,double))
  Symbol name  : ?LithoRamp@@YA_NW4LithoSignal@@NNN@Z (bool __cdecl LithoRamp(enum LithoSignal,double,double,double))
  Symbol name  : ?LithoRelease@@YA_N_N@Z (bool __cdecl LithoRelease(bool))
  Symbol name  : ?LithoRemoveStatusBox@@YAXXZ (void __cdecl LithoRemoveStatusBox(void))
  Symbol name  : ?LithoScan@@YA_N_N@Z (bool __cdecl LithoScan(bool))
  Symbol name  : ?LithoSet@@YA_NW4LithoSignal@@N@Z (bool __cdecl LithoSet(enum LithoSignal,double))
  Symbol name  : ?LithoSetSoft@@YA_NW4LithoSignal@@N@Z (bool __cdecl LithoSetSoft(enum LithoSignal,double))
  Symbol name  : ?LithoSetTranslateEx@@YAX_N@Z (void __cdecl LithoSetTranslateEx(bool))
  Symbol name  : ?LithoTranslate@@YA_NNNN@Z (bool __cdecl LithoTranslate(double,double,double))
  Symbol name  : ?LithoTranslateAbsolute@@YA_NNNN@Z (bool __cdecl LithoTranslateAbsolute(double,double,double))
  Symbol name  : ?LithoTrigger@@YA_NW4TriggerLine@@@Z (bool __cdecl LithoTrigger(enum TriggerLine))
  Symbol name  : ?LithoWaitFor@@YA_NW4LithoSignal@@N@Z (bool __cdecl LithoWaitFor(enum LithoSignal,double))
  Symbol name  : ?LoadPortCommand@@YA_NHH@Z (bool __cdecl LoadPortCommand(int,int))
  Symbol name  : ?LoadPortQuery@@YA_NHH@Z (bool __cdecl LoadPortQuery(int,int))
  Symbol name  : ?LoadPortResetAlarm@@YA_NH@Z (bool __cdecl LoadPortResetAlarm(int))
  Symbol name  : ?LoadProfile@@YAXPAD@Z (void __cdecl LoadProfile(char *))
  Symbol name  : ?LoadRTParms@@YA_NAAUFileName@@@Z (bool __cdecl LoadRTParms(struct FileName &))
  Symbol name  : ?LoaderErrorRecovery@@YA_N_N@Z (bool __cdecl LoaderErrorRecovery(bool))
  Symbol name  : ?LoaderExists@@YA_NXZ (bool __cdecl LoaderExists(void))
  Symbol name  : ?LoaderInit@@YA_NPAX_N1@Z (bool __cdecl LoaderInit(void *,bool,bool))
  Symbol name  : ?LoaderInit@@YA_NVInstrHandle@@_N1@Z (bool __cdecl LoaderInit(class InstrHandle,bool,bool))
  Symbol name  : ?LockGUI@@YAXXZ (void __cdecl LockGUI(void))
  Symbol name  : ?LockMenu@@YAX_N@Z (void __cdecl LockMenu(bool))
  Symbol name  : ?MacroAbort@@YAXPAD@Z (void __cdecl MacroAbort(char *))
  Symbol name  : ?MacroAbortStart@@YAXPAD_N1@Z (void __cdecl MacroAbortStart(char *,bool,bool))
  Symbol name  : ?MacroButton@@YAPAXPAD@Z (void * __cdecl MacroButton(char *))
  Symbol name  : ?MacroDir@@YA?AUFileName@@XZ (struct FileName __cdecl MacroDir(void))
  Symbol name  : ?MacroGetRecipeFileInFolder@@YA_NAAUFileName@@_N@Z (bool __cdecl MacroGetRecipeFileInFolder(struct FileName &,bool))
  Symbol name  : ?MacroGetRecipeFolder@@YA_NAAUFileName@@@Z (bool __cdecl MacroGetRecipeFolder(struct FileName &))
  Symbol name  : ?MacroIgnoreFreqParms@@YAX_N@Z (void __cdecl MacroIgnoreFreqParms(bool))
  Symbol name  : ?MacroInvalidFileName@@YAPBDXZ (char const * __cdecl MacroInvalidFileName(void))
  Symbol name  : ?MacroLoad@@YA_NAAUFileName@@@Z (bool __cdecl MacroLoad(struct FileName &))
  Symbol name  : ?MacroRun@@YA_NAAUFileName@@@Z (bool __cdecl MacroRun(struct FileName &))
  Symbol name  : ?MacroRunning@@YA_NXZ (bool __cdecl MacroRunning(void))
  Symbol name  : ?MacroSetRecipeInAFolderSwitch@@YAX_N@Z (void __cdecl MacroSetRecipeInAFolderSwitch(bool))
  Symbol name  : ?MacroSetUsageCount@@YAHH@Z (int __cdecl MacroSetUsageCount(int))
  Symbol name  : ?MacroSetWaferSize@@YAHW4ValidWaferSizes@@@Z (int __cdecl MacroSetWaferSize(enum ValidWaferSizes))
  Symbol name  : ?MacroTeach@@YA_NAAUFileName@@@Z (bool __cdecl MacroTeach(struct FileName &))
  Symbol name  : ?Maintnce_shutdown@@YAXXZ (void __cdecl Maintnce_shutdown(void))
  Symbol name  : ?Maintnce_startup@@YAXXZ (void __cdecl Maintnce_startup(void))
  Symbol name  : ?MakeFileName@@YA?AUFileName@@PAD@Z (struct FileName __cdecl MakeFileName(char *))
  Symbol name  : ?MergeResultFiles@@YAXPAD_N1@Z (void __cdecl MergeResultFiles(char *,bool,bool))
  Symbol name  : ?MfcMacroAbort@@YAXPAD@Z (void __cdecl MfcMacroAbort(char *))
  Symbol name  : ?ModalDialog@@YAPAXPAD@Z (void * __cdecl ModalDialog(char *))
  Symbol name  : ?ModalDialogMfc@@YAPAXPAD0@Z (void * __cdecl ModalDialogMfc(char *,char *))
  Symbol name  : ?ModifyFileName@@YA_NAAUFileName@@PAD@Z (bool __cdecl ModifyFileName(struct FileName &,char *))
  Symbol name  : ?MoveStageToZero@@YA_NXZ (bool __cdecl MoveStageToZero(void))
  Symbol name  : ?MultiBlockDataSendInquire@@YA_NHH@Z (bool __cdecl MultiBlockDataSendInquire(int,int))
  Symbol name  : ?Navigator@@YA_NAAUFileName@@@Z (bool __cdecl Navigator(struct FileName &))
  Symbol name  : ?NextSite@@YAHPAX@Z (int __cdecl NextSite(void *))
  Symbol name  : ?NextTipSite@@YAHPAXAAUCoord3D@@AAUFileName@@AA_NAAH@Z (int __cdecl NextTipSite(void *,struct Coord3D &,struct FileName &,bool &,int &))
  Symbol name  : ?NextWaferSelection@@YA_NH@Z (bool __cdecl NextWaferSelection(int))
  Symbol name  : ?NormalMenuBar@@YAXXZ (void __cdecl NormalMenuBar(void))
  Symbol name  : ?NotifyE87Alarm@@YAXHH@Z (void __cdecl NotifyE87Alarm(int,int))
  Symbol name  : ?NotifyE87Event@@YAXHH@Z (void __cdecl NotifyE87Event(int,int))
  Symbol name  : ?NumImages@@YAHXZ (int __cdecl NumImages(void))
  Symbol name  : ?OffLine@@YAXXZ (void __cdecl OffLine(void))
  Symbol name  : ?OffLineTeach@@YAXXZ (void __cdecl OffLineTeach(void))
  Symbol name  : ?OfflineVisionAutoProgramRun@@YA_NAAUFileName@@0@Z (bool __cdecl OfflineVisionAutoProgramRun(struct FileName &,struct FileName &))
  Symbol name  : ?OldNextSite@@YAHPAXAAUCoord3D@@AAUFileName@@AA_N@Z (int __cdecl OldNextSite(void *,struct Coord3D &,struct FileName &,bool &))
  Symbol name  : ?OpenFile@@YA?AUFileName@@XZ (struct FileName __cdecl OpenFile(void))
  Symbol name  : ?OpenImageFile@@YA_NAAUFileName@@@Z (bool __cdecl OpenImageFile(struct FileName &))
  Symbol name  : ?OperatorPausing@@YA_NXZ (bool __cdecl OperatorPausing(void))
  Symbol name  : ?Pause@@YAXM@Z (void __cdecl Pause(float))
  Symbol name  : ?PickAutoProgramFile@@YA_NAAUFileName@@@Z (bool __cdecl PickAutoProgramFile(struct FileName &))
  Symbol name  : ?PickCurrentSlot@@YAXAAH@Z (void __cdecl PickCurrentSlot(int &))
  Symbol name  : ?PreInventoryCassette@@YA_NH@Z (bool __cdecl PreInventoryCassette(int))
  Symbol name  : ?PreInventoryCassette@@YA_NXZ (bool __cdecl PreInventoryCassette(void))
  Symbol name  : ?PrintConfig@@YAXW4PrinterPort@@W4PrinterMode@@@Z (void __cdecl PrintConfig(enum PrinterPort,enum PrinterMode))
  Symbol name  : ?ProfilerAvailable@@YA_NXZ (bool __cdecl ProfilerAvailable(void))
  Symbol name  : ?ProfilerCaptureInAutomation@@YA_NXZ (bool __cdecl ProfilerCaptureInAutomation(void))
  Symbol name  : ?ProfilerFrameUpHold@@YAXXZ (void __cdecl ProfilerFrameUpHold(void))
  Symbol name  : ?ProfilerGreyControlsAndMenusDisable@@YAXXZ (void __cdecl ProfilerGreyControlsAndMenusDisable(void))
  Symbol name  : ?ProfilerGreyControlsAndMenusEnable@@YAXXZ (void __cdecl ProfilerGreyControlsAndMenusEnable(void))
  Symbol name  : ?ProfilerGreyControlsAndMenusEnabled@@YA_NXZ (bool __cdecl ProfilerGreyControlsAndMenusEnabled(void))
  Symbol name  : ?ProfilerNewProfileInitAndMarkPositions@@YAXXZ (void __cdecl ProfilerNewProfileInitAndMarkPositions(void))
  Symbol name  : ?ProfilerProfilingEnable@@YAXH@Z (void __cdecl ProfilerProfilingEnable(int))
  Symbol name  : ?ProfilerProfilingEnabled@@YAHXZ (int __cdecl ProfilerProfilingEnabled(void))
  Symbol name  : ?ProfilerRealtimeDisplayAllow@@YAXXZ (void __cdecl ProfilerRealtimeDisplayAllow(void))
  Symbol name  : ?ProfilerRealtimeDisplayAllowed@@YA_NXZ (bool __cdecl ProfilerRealtimeDisplayAllowed(void))
  Symbol name  : ?ProfilerRealtimeDisplayDisallow@@YAXXZ (void __cdecl ProfilerRealtimeDisplayDisallow(void))
  Symbol name  : ?ProfilerSetAxis@@YAXW4StageAxisCodes@@@Z (void __cdecl ProfilerSetAxis(enum StageAxisCodes))
  Symbol name  : ?ProfilerSetCaptureStartPosition@@YAXXZ (void __cdecl ProfilerSetCaptureStartPosition(void))
  Symbol name  : ?ProfilerSetDirectionGoal@@YAXW4Direction@@@Z (void __cdecl ProfilerSetDirectionGoal(enum Direction))
  Symbol name  : ?ProfilerSetLengthGoal@@YAXM@Z (void __cdecl ProfilerSetLengthGoal(float))
  Symbol name  : ?ProfilerShowProfilerControlsValues@@YAXXZ (void __cdecl ProfilerShowProfilerControlsValues(void))
  Symbol name  : ?ProfilerTraceEnable@@YAX_N@Z (void __cdecl ProfilerTraceEnable(bool))
  Symbol name  : ?PurgeAutoManBuffer@@YAX_NAAUFileName@@@Z (void __cdecl PurgeAutoManBuffer(bool,struct FileName &))
  Symbol name  : ?PutAwayWafer@@YA_NXZ (bool __cdecl PutAwayWafer(void))
  Symbol name  : ?QueryCarrierIDReadEnabled@@YA_NH@Z (bool __cdecl QueryCarrierIDReadEnabled(int))
  Symbol name  : ?QueryLoadPortEnabled@@YA_NH@Z (bool __cdecl QueryLoadPortEnabled(int))
  Symbol name  : ?ReadInstrFile@@YA_NVInstrHandle@@@Z (bool __cdecl ReadInstrFile(class InstrHandle))
  Symbol name  : ?RealTime@@YAXXZ (void __cdecl RealTime(void))
  Symbol name  : ?RecipeControlEnd@@YAXXZ (void __cdecl RecipeControlEnd(void))
  Symbol name  : ?RecipeControlHideStop@@YAXXZ (void __cdecl RecipeControlHideStop(void))
  Symbol name  : ?RecipeControlInit@@YA_NPAD@Z (bool __cdecl RecipeControlInit(char *))
  Symbol name  : ?RecipeControlQueryStop@@YA_NXZ (bool __cdecl RecipeControlQueryStop(void))
  Symbol name  : ?RecipeControlResetStop@@YAXXZ (void __cdecl RecipeControlResetStop(void))
  Symbol name  : ?RegisterSite@@YA_NPAX@Z (bool __cdecl RegisterSite(void *))
  Symbol name  : ?RegisterSite@@YA_NVSiteHandle@@@Z (bool __cdecl RegisterSite(class SiteHandle))
  Symbol name  : ?RemoveDialog@@YAXPAX@Z (void __cdecl RemoveDialog(void *))
  Symbol name  : ?RemoveSayBox@@YAXXZ (void __cdecl RemoveSayBox(void))
  Symbol name  : ?ResetAutoPgmSite@@YAXPAX@Z (void __cdecl ResetAutoPgmSite(void *))
  Symbol name  : ?RestoreDialog@@YAXPAX@Z (void __cdecl RestoreDialog(void *))
  Symbol name  : ?RestoreRTPanels@@YAXXZ (void __cdecl RestoreRTPanels(void))
  Symbol name  : ?RetractArm@@YA_NXZ (bool __cdecl RetractArm(void))
  Symbol name  : ?RobotClearAllWaferIDs@@YA_NXZ (bool __cdecl RobotClearAllWaferIDs(void))
  Symbol name  : ?RobotGetWaferID@@YA_NHAAPAD@Z (bool __cdecl RobotGetWaferID(int,char * &))
  Symbol name  : ?RobotGetWaferName@@YA_NHAAPAD@Z (bool __cdecl RobotGetWaferName(int,char * &))
  Symbol name  : ?RunAutoProgram@@YAXAAUFileName@@_N@Z (void __cdecl RunAutoProgram(struct FileName &,bool))
  Symbol name  : ?RunDialog@@YAHPAX@Z (int __cdecl RunDialog(void *))
  Symbol name  : ?RunDialogMfc@@YAHPAX@Z (int __cdecl RunDialogMfc(void *))
  Symbol name  : ?SMIFAuto@@YAXH@Z (void __cdecl SMIFAuto(int))
  Symbol name  : ?SMIFManual@@YAXH@Z (void __cdecl SMIFManual(int))
  Symbol name  : ?SaveFile@@YAXXZ (void __cdecl SaveFile(void))
  Symbol name  : ?SaveRTParms@@YA_NAAUFileName@@@Z (bool __cdecl SaveRTParms(struct FileName &))
  Symbol name  : ?SayError@@YAXPBDZZ (void __cdecl SayError(char const *,...))
  Symbol name  : ?SayMessage@@YAXPBD0ZZ (void __cdecl SayMessage(char const *,char const *,...))
  Symbol name  : ?SayWarning@@YAXPBDZZ (void __cdecl SayWarning(char const *,...))
  Symbol name  : ?ScanParmsUpdt@@YAXXZ (void __cdecl ScanParmsUpdt(void))
  Symbol name  : ?ScopeMode@@YAXXZ (void __cdecl ScopeMode(void))
  Symbol name  : ?SecsEnabled@@YA_NXZ (bool __cdecl SecsEnabled(void))
  Symbol name  : ?SecsInterfaceAlive@@YA_NXZ (bool __cdecl SecsInterfaceAlive(void))
  Symbol name  : ?SectionAnalysis@@YAXXZ (void __cdecl SectionAnalysis(void))
  Symbol name  : ?SelectCarrierIDReader@@YA_NH@Z (bool __cdecl SelectCarrierIDReader(int))
  Symbol name  : ?SelectRadioButton@@YAXPAXH@Z (void __cdecl SelectRadioButton(void *,int))
  Symbol name  : ?SendMail@@YAXPAD00@Z (void __cdecl SendMail(char *,char *,char *))
  Symbol name  : ?SendSdrResponse@@YAXXZ (void __cdecl SendSdrResponse(void))
  Symbol name  : ?SendUnexpected@@YAXF@Z (void __cdecl SendUnexpected(short))
  Symbol name  : ?ServicePasswordQuery@@YA_NXZ (bool __cdecl ServicePasswordQuery(void))
  Symbol name  : ?SetAFMMode@@YAXW4AFMMode@@@Z (void __cdecl SetAFMMode(enum AFMMode))
  Symbol name  : ?SetAspectRatio@@YAXM@Z (void __cdecl SetAspectRatio(float))
  Symbol name  : ?SetAutoReportFormat@@YAXW4AutomanReportFormat@@@Z (void __cdecl SetAutoReportFormat(enum AutomanReportFormat))
  Symbol name  : ?SetAutoReportPagination@@YAX_N@Z (void __cdecl SetAutoReportPagination(bool))
  Symbol name  : ?SetBidirectionalScan@@YAX_N@Z (void __cdecl SetBidirectionalScan(bool))
  Symbol name  : ?SetBuggyMode@@YAX_N@Z (void __cdecl SetBuggyMode(bool))
  Symbol name  : ?SetCaptureFileName@@YAXAAUFileName@@@Z (void __cdecl SetCaptureFileName(struct FileName &))
  Symbol name  : ?SetCassette@@YA_NH@Z (bool __cdecl SetCassette(int))
  Symbol name  : ?SetCassetteContext@@YA_NH@Z (bool __cdecl SetCassetteContext(int))
  Symbol name  : ?SetCurrentDir@@YAXAAUFileName@@@Z (void __cdecl SetCurrentDir(struct FileName &))
  Symbol name  : ?SetCurrentSlot@@YA_NH@Z (bool __cdecl SetCurrentSlot(int))
  Symbol name  : ?SetDriveFeedback@@YAX_N@Z (void __cdecl SetDriveFeedback(bool))
  Symbol name  : ?SetDriveFreq@@YAXM@Z (void __cdecl SetDriveFreq(float))
  Symbol name  : ?SetExtraSiteInfo@@YAXPAXAAUExtraSiteInfo@@@Z (void __cdecl SetExtraSiteInfo(void *,struct ExtraSiteInfo &))
  Symbol name  : ?SetFeatureEngage@@YAX_N@Z (void __cdecl SetFeatureEngage(bool))
  Symbol name  : ?SetHeightEngage@@YAX_N@Z (void __cdecl SetHeightEngage(bool))
  Symbol name  : ?SetImageCenter@@YA_NH@Z (bool __cdecl SetImageCenter(int))
  Symbol name  : ?SetImageNote@@YAXPAD@Z (void __cdecl SetImageNote(char *))
  Symbol name  : ?SetIntegralGain@@YAXN@Z (void __cdecl SetIntegralGain(double))
  Symbol name  : ?SetInterleaveMode@@YAX_N@Z (void __cdecl SetInterleaveMode(bool))
  Symbol name  : ?SetInventory@@YA_NH@Z (bool __cdecl SetInventory(int))
  Symbol name  : ?SetLastOpenFile@@YAXAAUFileName@@@Z (void __cdecl SetLastOpenFile(struct FileName &))
  Symbol name  : ?SetLoaderInUse@@YAX_N@Z (void __cdecl SetLoaderInUse(bool))
  Symbol name  : ?SetLoaderLights@@YA_NHW4loader_state@@W4light_state@@@Z (bool __cdecl SetLoaderLights(int,enum loader_state,enum light_state))
  Symbol name  : ?SetMacroStatusBar@@YAXHPAD@Z (void __cdecl SetMacroStatusBar(int,char *))
  Symbol name  : ?SetNavigatorNote@@YAXPAD@Z (void __cdecl SetNavigatorNote(char *))
  Symbol name  : ?SetPrealignerParms@@YA_N_NHH@Z (bool __cdecl SetPrealignerParms(bool,int,int))
  Symbol name  : ?SetProportionalGain@@YAXN@Z (void __cdecl SetProportionalGain(double))
  Symbol name  : ?SetRecipeStopState@@YAXH@Z (void __cdecl SetRecipeStopState(int))
  Symbol name  : ?SetRounding@@YAXM@Z (void __cdecl SetRounding(float))
  Symbol name  : ?SetSamplesPerLine@@YAXH@Z (void __cdecl SetSamplesPerLine(int))
  Symbol name  : ?SetScanAngle@@YAXM@Z (void __cdecl SetScanAngle(float))
  Symbol name  : ?SetScanLines@@YAXH@Z (void __cdecl SetScanLines(int))
  Symbol name  : ?SetScanRate@@YAXM@Z (void __cdecl SetScanRate(float))
  Symbol name  : ?SetScanSize@@YAXM@Z (void __cdecl SetScanSize(float))
  Symbol name  : ?SetScanSizeOffLine@@YAXM@Z (void __cdecl SetScanSizeOffLine(float))
  Symbol name  : ?SetSetpoint@@YAXN@Z (void __cdecl SetSetpoint(double))
  Symbol name  : ?SetShortWithdrawDistance@@YAXM@Z (void __cdecl SetShortWithdrawDistance(float))
  Symbol name  : ?SetSiteAutoProgram@@YAXPAXAAUFileName@@@Z (void __cdecl SetSiteAutoProgram(void *,struct FileName &))
  Symbol name  : ?SetSpeedGoal@@YAXM@Z (void __cdecl SetSpeedGoal(float))
  Symbol name  : ?SetSubtractImage@@YAXAAUFileName@@@Z (void __cdecl SetSubtractImage(struct FileName &))
  Symbol name  : ?SetTeach@@YAX_N@Z (void __cdecl SetTeach(bool))
  Symbol name  : ?SetWaferSize@@YAHW4ValidWaferSizes@@@Z (int __cdecl SetWaferSize(enum ValidWaferSizes))
  Symbol name  : ?SetXOffset@@YAXM@Z (void __cdecl SetXOffset(float))
  Symbol name  : ?SetYOffset@@YAXM@Z (void __cdecl SetYOffset(float))
  Symbol name  : ?ShowMessage@@YAXPBD0ZZ (void __cdecl ShowMessage(char const *,char const *,...))
  Symbol name  : ?SiteFileClose@@YAXPAX_N@Z (void __cdecl SiteFileClose(void *,bool))
  Symbol name  : ?SiteFileEdit@@YA_NPAX@Z (bool __cdecl SiteFileEdit(void *))
  Symbol name  : ?SiteFileIndex@@YAHPAX@Z (int __cdecl SiteFileIndex(void *))
  Symbol name  : ?SiteFileOpen@@YAPAXABUFileName@@@Z (void * __cdecl SiteFileOpen(struct FileName const &))
  Symbol name  : ?SiteFileReset@@YAXPAX@Z (void __cdecl SiteFileReset(void *))
  Symbol name  : ?SiteNoAutoProgramEdit@@YA_NPAX@Z (bool __cdecl SiteNoAutoProgramEdit(void *))
  Symbol name  : ?SplitImage@@YA_NHAAUFileName@@@Z (bool __cdecl SplitImage(int,struct FileName &))
  Symbol name  : ?StageAbort@@YA_NXZ (bool __cdecl StageAbort(void))
  Symbol name  : ?StageAxisExists@@YA_NW4StageAxisCodes@@@Z (bool __cdecl StageAxisExists(enum StageAxisCodes))
  Symbol name  : ?StageDefineXYZReference@@YAX_N@Z (void __cdecl StageDefineXYZReference(bool))
  Symbol name  : ?StageDisableAuxToZero@@YA_NXZ (bool __cdecl StageDisableAuxToZero(void))
  Symbol name  : ?StageDisableEngageCheck@@YAXXZ (void __cdecl StageDisableEngageCheck(void))
  Symbol name  : ?StageDisableSafetyCheck@@YAXXZ (void __cdecl StageDisableSafetyCheck(void))
  Symbol name  : ?StageDisableShortWithdraw@@YAXXZ (void __cdecl StageDisableShortWithdraw(void))
  Symbol name  : ?StageEnableAuxToZero@@YA_NXZ (bool __cdecl StageEnableAuxToZero(void))
  Symbol name  : ?StageEnableEngageCheck@@YAXXZ (void __cdecl StageEnableEngageCheck(void))
  Symbol name  : ?StageEnableSafetyCheck@@YAXXZ (void __cdecl StageEnableSafetyCheck(void))
  Symbol name  : ?StageEnableShortWithdraw@@YAXXZ (void __cdecl StageEnableShortWithdraw(void))
  Symbol name  : ?StageFocusSurface@@YAXXZ (void __cdecl StageFocusSurface(void))
  Symbol name  : ?StageGetAcceleration@@YAMW4StageAxisCodes@@@Z (float __cdecl StageGetAcceleration(enum StageAxisCodes))
  Symbol name  : ?StageGetAuxEncoderFactor@@YAHXZ (int __cdecl StageGetAuxEncoderFactor(void))
  Symbol name  : ?StageGetAxisLabel@@YAPADW4StageAxisCodes@@@Z (char * __cdecl StageGetAxisLabel(enum StageAxisCodes))
  Symbol name  : ?StageGetClearanceHeight@@YAMXZ (float __cdecl StageGetClearanceHeight(void))
  Symbol name  : ?StageGetMaxCount@@YAJW4StageAxisCodes@@@Z (long __cdecl StageGetMaxCount(enum StageAxisCodes))
  Symbol name  : ?StageGetMaxSpeed@@YAMW4StageAxisCodes@@@Z (float __cdecl StageGetMaxSpeed(enum StageAxisCodes))
  Symbol name  : ?StageGetMinCount@@YAJW4StageAxisCodes@@@Z (long __cdecl StageGetMinCount(enum StageAxisCodes))
  Symbol name  : ?StageGetPosition@@YAMH@Z (float __cdecl StageGetPosition(int))
  Symbol name  : ?StageGetReferenceXYZ@@YA?AUCoord3D@@XZ (struct Coord3D __cdecl StageGetReferenceXYZ(void))
  Symbol name  : ?StageGetSpeed@@YAMW4StageAxisCodes@@@Z (float __cdecl StageGetSpeed(enum StageAxisCodes))
  Symbol name  : ?StageGetUnitsPerCount@@YAMW4StageAxisCodes@@@Z (float __cdecl StageGetUnitsPerCount(enum StageAxisCodes))
  Symbol name  : ?StageGetXYReference@@YAHAAJ000@Z (int __cdecl StageGetXYReference(long &,long &,long &,long &))
  Symbol name  : ?StageGetXYZ@@YA?AUCoord3D@@XZ (struct Coord3D __cdecl StageGetXYZ(void))
  Symbol name  : ?StageGetXYZReference@@YAHAAJ0000@Z (int __cdecl StageGetXYZReference(long &,long &,long &,long &,long &))
  Symbol name  : ?StageGetZReference@@YAHAAJ@Z (int __cdecl StageGetZReference(long &))
  Symbol name  : ?StageInitXY@@YAHXZ (int __cdecl StageInitXY(void))
  Symbol name  : ?StageInitialize@@YA_NXZ (bool __cdecl StageInitialize(void))
  Symbol name  : ?StageIsAxisDefined@@YA_NXZ (bool __cdecl StageIsAxisDefined(void))
  Symbol name  : ?StageLoad@@YAXXZ (void __cdecl StageLoad(void))
  Symbol name  : ?StageLocateTip@@YAXXZ (void __cdecl StageLocateTip(void))
  Symbol name  : ?StageMove3D@@YA_NPAXAAUCoord3D@@_N@Z (bool __cdecl StageMove3D(void *,struct Coord3D &,bool))
  Symbol name  : ?StageMove3DCenter@@YAXAAUCoord3D@@@Z (void __cdecl StageMove3DCenter(struct Coord3D &))
  Symbol name  : ?StageMove3DNoCenter@@YAXAAUCoord3D@@@Z (void __cdecl StageMove3DNoCenter(struct Coord3D &))
  Symbol name  : ?StageMoveAuxAxis@@YA_NMM@Z (bool __cdecl StageMoveAuxAxis(float,float))
  Symbol name  : ?StageMoveAxis@@YA_NHM_NHM0@Z (bool __cdecl StageMoveAxis(int,float,bool,int,float,bool))
  Symbol name  : ?StageMoveAxisAtSpeed@@YA_NHMM_N0H@Z (bool __cdecl StageMoveAxisAtSpeed(int,float,float,bool,bool,int))
  Symbol name  : ?StageMoveSPM@@YA_NM_N@Z (bool __cdecl StageMoveSPM(float,bool))
  Symbol name  : ?StageMoveTo@@YAXXZ (void __cdecl StageMoveTo(void))
  Symbol name  : ?StageMoveToSurfaceFocus@@YA_NXZ (bool __cdecl StageMoveToSurfaceFocus(void))
  Symbol name  : ?StageOff@@YAXXZ (void __cdecl StageOff(void))
  Symbol name  : ?StageOn@@YAXXZ (void __cdecl StageOn(void))
  Symbol name  : ?StageRegister@@YA_NPAX_N@Z (bool __cdecl StageRegister(void *,bool))
  Symbol name  : ?StageResetImageCenter@@YAXXZ (void __cdecl StageResetImageCenter(void))
  Symbol name  : ?StageResetZReference@@YAXXZ (void __cdecl StageResetZReference(void))
  Symbol name  : ?StageSetCalSpeeds@@YAXHH@Z (void __cdecl StageSetCalSpeeds(int,int))
  Symbol name  : ?StageSetFlyHeight@@YAXM@Z (void __cdecl StageSetFlyHeight(float))
  Symbol name  : ?StageSetFocusCount@@YAXH@Z (void __cdecl StageSetFocusCount(int))
  Symbol name  : ?StageSetFocusOnTipReflection@@YAX_N@Z (void __cdecl StageSetFocusOnTipReflection(bool))
  Symbol name  : ?StageSetXYReference@@YAXHJJJJ@Z (void __cdecl StageSetXYReference(int,long,long,long,long))
  Symbol name  : ?StageSetXYReferenceOrigin@@YAXXZ (void __cdecl StageSetXYReferenceOrigin(void))
  Symbol name  : ?StageSetXYZReference@@YAXHJJJJJ@Z (void __cdecl StageSetXYZReference(int,long,long,long,long,long))
  Symbol name  : ?StageSetZReference@@YAXJ@Z (void __cdecl StageSetZReference(long))
  Symbol name  : ?StageStop@@YA_NH@Z (bool __cdecl StageStop(int))
  Symbol name  : ?StageUnload@@YAXXZ (void __cdecl StageUnload(void))
  Symbol name  : ?StartCapture@@YA_NHW4CaptureFlags@@@Z (bool __cdecl StartCapture(int,enum CaptureFlags))
  Symbol name  : ?StartFileFind@@YA_NAAUFileName@@@Z (bool __cdecl StartFileFind(struct FileName &))
  Symbol name  : ?StartMacro@@YA_NAAUFileName@@@Z (bool __cdecl StartMacro(struct FileName &))
  Symbol name  : ?StartNewThread@@YAXP6AXXZ@Z (void __cdecl StartNewThread(void (__cdecl*)(void)))
  Symbol name  : ?StartupDir@@YA?AUFileName@@XZ (struct FileName __cdecl StartupDir(void))
  Symbol name  : ?TeachCharRegister@@YA_NPAX@Z (bool __cdecl TeachCharRegister(void *))
  Symbol name  : ?TeachLoader@@YAXPAX@Z (void __cdecl TeachLoader(void *))
  Symbol name  : ?TeachStageRegister@@YA_NPAX_N@Z (bool __cdecl TeachStageRegister(void *,bool))
  Symbol name  : ?ThreadAttach@@YGXXZ (void __stdcall ThreadAttach(void))
  Symbol name  : ?ThreadDetach@@YGXXZ (void __stdcall ThreadDetach(void))
  Symbol name  : ?TimeString@@YAPADXZ (char * __cdecl TimeString(void))
  Symbol name  : ?TipAnCheckCharSite@@YA_NAAUFileName@@0AAVSiteHandle@@H@Z (bool __cdecl TipAnCheckCharSite(struct FileName &,struct FileName &,class SiteHandle &,int))
  Symbol name  : ?TipAnTeachCharSite@@YA_NAAUFileName@@0AAVSiteHandle@@H@Z (bool __cdecl TipAnTeachCharSite(struct FileName &,struct FileName &,class SiteHandle &,int))
  Symbol name  : ?TipDown@@YAXM@Z (void __cdecl TipDown(float))
  Symbol name  : ?TipUp@@YAXM@Z (void __cdecl TipUp(float))
  Symbol name  : ?TipX_ChangeCassette@@YA_NPAD@Z (bool __cdecl TipX_ChangeCassette(char *))
  Symbol name  : ?TipX_ChangeTip@@YA_NAAH0@Z (bool __cdecl TipX_ChangeTip(int &,int &))
  Symbol name  : ?TipX_Create@@YAHPAD@Z (int __cdecl TipX_Create(char *))
  Symbol name  : ?TipX_Destroy@@YAXH@Z (void __cdecl TipX_Destroy(int))
  Symbol name  : ?TipX_GetCenteredFlag@@YA_NXZ (bool __cdecl TipX_GetCenteredFlag(void))
  Symbol name  : ?TipX_GetCenteringFile@@YAPADXZ (char * __cdecl TipX_GetCenteringFile(void))
  Symbol name  : ?TipX_GetError@@YAPADXZ (char * __cdecl TipX_GetError(void))
  Symbol name  : ?TipX_GetMaxSlot@@YAHXZ (int __cdecl TipX_GetMaxSlot(void))
  Symbol name  : ?TipX_GetSlot@@YAHH@Z (int __cdecl TipX_GetSlot(int))
  Symbol name  : ?TipX_GetTipType@@YAHH@Z (int __cdecl TipX_GetTipType(int))
  Symbol name  : ?TipX_GetTipType@@YAPADXZ (char * __cdecl TipX_GetTipType(void))
  Symbol name  : ?TipX_GetTipTypeTag@@YAPADXZ (char * __cdecl TipX_GetTipTypeTag(void))
  Symbol name  : ?TipX_GetUsageCount@@YAHXZ (int __cdecl TipX_GetUsageCount(void))
  Symbol name  : ?TipX_GetWarning@@YAPADXZ (char * __cdecl TipX_GetWarning(void))
  Symbol name  : ?TipX_HaveTip@@YA_NXZ (bool __cdecl TipX_HaveTip(void))
  Symbol name  : ?TipX_IncrementUsageCount@@YAHXZ (int __cdecl TipX_IncrementUsageCount(void))
  Symbol name  : ?TipX_IsCassetteEmpty@@YA_NXZ (bool __cdecl TipX_IsCassetteEmpty(void))
  Symbol name  : ?TipX_IsMultiTipSystem@@YA_NXZ (bool __cdecl TipX_IsMultiTipSystem(void))
  Symbol name  : ?TipX_Log@@YAXPAD@Z (void __cdecl TipX_Log(char *))
  Symbol name  : ?TipX_PutTip@@YAHH@Z (int __cdecl TipX_PutTip(int))
  Symbol name  : ?TipX_QueryTipWidthStatus@@YA?AW4twStatus@@H@Z (enum twStatus __cdecl TipX_QueryTipWidthStatus(int))
  Symbol name  : ?TipX_SelectTipType@@YAPADPAD_N@Z (char * __cdecl TipX_SelectTipType(char *,bool))
  Symbol name  : ?TipX_SetCenteringFile@@YAXPAD@Z (void __cdecl TipX_SetCenteringFile(char *))
  Symbol name  : ?TipX_SetEmptySlot@@YA_NH@Z (bool __cdecl TipX_SetEmptySlot(int))
  Symbol name  : ?TipX_SetLoopingMode@@YAX_N@Z (void __cdecl TipX_SetLoopingMode(bool))
  Symbol name  : ?TipX_SetSlot@@YAXHH@Z (void __cdecl TipX_SetSlot(int,int))
  Symbol name  : ?TipX_SetTipType@@YA_NPAD_N@Z (bool __cdecl TipX_SetTipType(char *,bool))
  Symbol name  : ?TipX_TipsLeft@@YAHXZ (int __cdecl TipX_TipsLeft(void))
  Symbol name  : ?USTimer@@YAKXZ (unsigned long __cdecl USTimer(void))
  Symbol name  : ?UnlockGUI@@YAXXZ (void __cdecl UnlockGUI(void))
  Symbol name  : ?UnlockMenu@@YAXXZ (void __cdecl UnlockMenu(void))
  Symbol name  : ?UserAdminPassword@@YAXXZ (void __cdecl UserAdminPassword(void))
  Symbol name  : ?UserAnalyzeRecipe@@YAXXZ (void __cdecl UserAnalyzeRecipe(void))
  Symbol name  : ?UserCloneRecipe@@YAXXZ (void __cdecl UserCloneRecipe(void))
  Symbol name  : ?UserKillRecipe@@YAXXZ (void __cdecl UserKillRecipe(void))
  Symbol name  : ?UserMacroLoad@@YAXXZ (void __cdecl UserMacroLoad(void))
  Symbol name  : ?UserMacroTeach@@YAXXZ (void __cdecl UserMacroTeach(void))
  Symbol name  : ?UserMacroUnLoad@@YAXXZ (void __cdecl UserMacroUnLoad(void))
  Symbol name  : ?UserRecipeControl@@YAXXZ (void __cdecl UserRecipeControl(void))
  Symbol name  : ?UserRecipeRun@@YAXXZ (void __cdecl UserRecipeRun(void))
  Symbol name  : ?UserRecipeTeach@@YAXXZ (void __cdecl UserRecipeTeach(void))
  Symbol name  : ?UserSetMSMProbe@@YAX_N@Z (void __cdecl UserSetMSMProbe(bool))
  Symbol name  : ?UserSetXmasTree@@YAXW4XmasLightType@@@Z (void __cdecl UserSetXmasTree(enum XmasLightType))
  Symbol name  : ?UserTeachVisionOffline@@YA_NAAUFileName@@0@Z (bool __cdecl UserTeachVisionOffline(struct FileName &,struct FileName &))
  Symbol name  : ?UserXmasTreeNumLights@@YAHXZ (int __cdecl UserXmasTreeNumLights(void))
  Symbol name  : ?VerifyWaferSize@@YA_NXZ (bool __cdecl VerifyWaferSize(void))
  Symbol name  : ?VisionCalError@@YAXAAUCoord2D@@@Z (void __cdecl VisionCalError(struct Coord2D &))
  Symbol name  : ?VisionMoveToOpticalStandard@@YA_NXZ (bool __cdecl VisionMoveToOpticalStandard(void))
  Symbol name  : ?VisionOpticsCalibration@@YA_NXZ (bool __cdecl VisionOpticsCalibration(void))
  Symbol name  : ?WaitForCapture@@YA_NXZ (bool __cdecl WaitForCapture(void))
  Symbol name  : ?WaitSecondInstProc@@YAXH@Z (void __cdecl WaitSecondInstProc(int))
  Symbol name  : ?Withdraw@@YA_NXZ (bool __cdecl Withdraw(void))
  Symbol name  : ?boughtFeatureEngage@@3_NA (bool boughtFeatureEngage)
  Symbol name  : ?cddvdOption@@YAXXZ (void __cdecl cddvdOption(void))
  Symbol name  : ?checkInSecs@@YA_N_N@Z (bool __cdecl checkInSecs(bool))
  Symbol name  : ?checkOutSecs@@YADXZ (char __cdecl checkOutSecs(void))
  Symbol name  : ?closeSecs@@YAXXZ (void __cdecl closeSecs(void))
  Symbol name  : ?deleteProcessProgram@@YA_NPAD@Z (bool __cdecl deleteProcessProgram(char *))
  Symbol name  : ?deleteRcpFileList@@YAXXZ (void __cdecl deleteRcpFileList(void))
  Symbol name  : ?deleteTextBuffer@@YAXXZ (void __cdecl deleteTextBuffer(void))
  Symbol name  : ?dropTicket@@YAXXZ (void __cdecl dropTicket(void))
  Symbol name  : ?getAbortMonitor@@YA_NXZ (bool __cdecl getAbortMonitor(void))
  Symbol name  : ?getMacroActive@@YA_NXZ (bool __cdecl getMacroActive(void))
  Symbol name  : ?getMessageBuf@@YAPAUSDRMSG@@XZ (struct SDRMSG * __cdecl getMessageBuf(void))
  Symbol name  : ?getMessageData@@YA_N_N@Z (bool __cdecl getMessageData(bool))
  Symbol name  : ?getNote@@YAPADXZ (char * __cdecl getNote(void))
  Symbol name  : ?getPatternRecValid@@YA_NXZ (bool __cdecl getPatternRecValid(void))
  Symbol name  : ?getRcpFileList@@YAPAPADPADAAH@Z (char * * __cdecl getRcpFileList(char *,int &))
  Symbol name  : ?getRcvBuf@@YAPAEXZ (unsigned char * __cdecl getRcvBuf(void))
  Symbol name  : ?getRcvTicket@@YAPAGXZ (unsigned short * __cdecl getRcvTicket(void))
  Symbol name  : ?getResultDir@@YAPADXZ (char * __cdecl getResultDir(void))
  Symbol name  : ?getResultFile@@YAPADXZ (char * __cdecl getResultFile(void))
  Symbol name  : ?getSecsOnLine@@YA_NXZ (bool __cdecl getSecsOnLine(void))
  Symbol name  : ?getSiteHeader@@YAPAUtagRtSiteData@@PAH@Z (struct tagRtSiteData * __cdecl getSiteHeader(int *))
  Symbol name  : ?getTextBuffer@@YAPADPAD@Z (char * __cdecl getTextBuffer(char *))
  Symbol name  : ?getTime@@YAXPAD@Z (void __cdecl getTime(char *))
  Symbol name  : ?getVerModel@@YAPADXZ (char * __cdecl getVerModel(void))
  Symbol name  : ?getVerString@@YAPADXZ (char * __cdecl getVerString(void))
  Symbol name  : ?getVersion@@YAPADXZ (char * __cdecl getVersion(void))
  Symbol name  : ?getXmtBuf@@YAPAEXZ (unsigned char * __cdecl getXmtBuf(void))
  Symbol name  : ?hostCommandProcess@@YADDAAD@Z (char __cdecl hostCommandProcess(char,char &))
  Symbol name  : ?initAutoFilename@@YAXPAD@Z (void __cdecl initAutoFilename(char *))
  Symbol name  : ?initResponse@@YA_N_N@Z (bool __cdecl initResponse(bool))
  Symbol name  : ?initSendMessage@@YAXHHHH_N@Z (void __cdecl initSendMessage(int,int,int,int,bool))
  Symbol name  : ?initVisionShifts@@YAX_N@Z (void __cdecl initVisionShifts(bool))
  Symbol name  : ?itemInput@@YAJHPAXJ@Z (long __cdecl itemInput(int,void *,long))
  Symbol name  : ?itemOutput@@YAJHPAXJ@Z (long __cdecl itemOutput(int,void *,long))
  Symbol name  : ?layersOption@@YAXXZ (void __cdecl layersOption(void))
  Symbol name  : ?linkDummyOutput@@YAXPAUtagRtSiteData@@@Z (void __cdecl linkDummyOutput(struct tagRtSiteData *))
  Symbol name  : ?makeSecsDialog@@YAXPAUMSG_LIST@@@Z (void __cdecl makeSecsDialog(struct MSG_LIST *))
  Symbol name  : ?msgIdSelect@@YAXH@Z (void __cdecl msgIdSelect(int))
  Symbol name  : ?openSecs@@YA_NP6AXHPAX@ZJJ@Z (bool __cdecl openSecs(void (__cdecl*)(int,void *),long,long))
  Symbol name  : ?pauseInactive@@YA_NXZ (bool __cdecl pauseInactive(void))
  Symbol name  : ?popMessage@@YAXPAUSDRMSG@@PAGPADJ@Z (void __cdecl popMessage(struct SDRMSG *,unsigned short *,char *,long))
  Symbol name  : ?pushMessage@@YAXPAUSDRMSG@@PAGPAPAD@Z (void __cdecl pushMessage(struct SDRMSG *,unsigned short *,char * *))
  Symbol name  : ?putTextBuffer@@YA_NPAD0J@Z (bool __cdecl putTextBuffer(char *,char *,long))
  Symbol name  : ?sdrRequest@@YAXXZ (void __cdecl sdrRequest(void))
  Symbol name  : ?secsActive@@YA_NXZ (bool __cdecl secsActive(void))
  Symbol name  : ?secsCallBack@@YA_NHPAX@Z (bool __cdecl secsCallBack(int,void *))
  Symbol name  : ?secsEventReport@@YA_NHHPAH@Z (bool __cdecl secsEventReport(int,int,int *))
  Symbol name  : ?secsOpen@@YA_NXZ (bool __cdecl secsOpen(void))
  Symbol name  : ?setPatternRecValid@@YAX_N@Z (void __cdecl setPatternRecValid(bool))
  Symbol name  : ?setReportLocation@@YAXPADHH@Z (void __cdecl setReportLocation(char *,int,int))
  Symbol name  : ?setSecsOnLine@@YAX_N@Z (void __cdecl setSecsOnLine(bool))
  Symbol name  : ?setSiteHeader@@YAXPAUtagRtSiteData@@H@Z (void __cdecl setSiteHeader(struct tagRtSiteData *,int))
  Symbol name  : ?setTime@@YADPAD@Z (char __cdecl setTime(char *))
  Symbol name  : ?showString@@YAXHPBDZZ (void __cdecl showString(int,char const *,...))
  Symbol name  : ?startAbortMonitor@@YAXXZ (void __cdecl startAbortMonitor(void))
  Symbol name  : ?stopAbortMonitor@@YAXXZ (void __cdecl stopAbortMonitor(void))
  Symbol name  : ?takeABreak@@YAXXZ (void __cdecl takeABreak(void))
